target datalayout = "e-m:e-p270:32:32-p271:32:32-p272:64:64-i64:64-i128:128-f80:128-n8:16:32:64-S128"
target triple = "x86_64-pc-linux-gnu"

%"class.std::__cxx11::basic_string" = type { %"struct.std::__cxx11::basic_string<char>::_Alloc_hider", i64, %union.anon.144 }
%"struct.std::__cxx11::basic_string<char>::_Alloc_hider" = type { ptr }
%union.anon.144 = type { i64, [8 x i8] }
%"class.llvm::StringRef" = type { ptr, i64 }
%"class.llvm::FoldingSetBase::Node" = type { ptr }
%"class.llvm::FoldingSetBase" = type { ptr, i32, i32 }
%"class.llvm::StringMapImpl" = type { ptr, i32, i32, i32, i32 }
%"class.clang::ento::BugReporterVisitor" = type { ptr, %"class.llvm::FoldingSetBase::Node" }
%"class.clang::ProgramPoint" = type { ptr, %"class.llvm::PointerIntPair.816", %"class.llvm::PointerIntPair.818", %"class.llvm::PointerIntPair.820", %"class.clang::CFGBlock::ElementRefImpl" }
%"class.llvm::PointerIntPair.816" = type { %"struct.llvm::detail::PunnedPointer.817" }
%"struct.llvm::detail::PunnedPointer.817" = type { [8 x i8] }
%"class.llvm::PointerIntPair.818" = type { %"struct.llvm::detail::PunnedPointer.819" }
%"struct.llvm::detail::PunnedPointer.819" = type { [8 x i8] }
%"class.llvm::PointerIntPair.820" = type { %"struct.llvm::detail::PunnedPointer.821" }
%"struct.llvm::detail::PunnedPointer.821" = type { [8 x i8] }
%"class.clang::CFGBlock::ElementRefImpl" = type { ptr, i64 }
%"class.clang::ento::ExplodedNode" = type { %"class.llvm::FoldingSetBase::Node", %"class.clang::ProgramPoint", %"class.llvm::IntrusiveRefCntPtr.822", %"class.clang::ento::ExplodedNode::NodeGroup", %"class.clang::ento::ExplodedNode::NodeGroup", i64 }
%"class.llvm::IntrusiveRefCntPtr.822" = type { ptr }
%"class.clang::ento::ExplodedNode::NodeGroup" = type { i64 }
%"class.clang::ento::DefinedSVal" = type { %"class.clang::ento::DefinedOrUnknownSVal.base", [7 x i8] }
%"class.clang::ento::DefinedOrUnknownSVal.base" = type { %"class.clang::ento::SVal.base" }
%"class.clang::ento::SVal.base" = type <{ ptr, i8 }>
%"class.clang::ento::SuppressInlineDefensiveChecksVisitor" = type <{ %"class.clang::ento::BugReporterVisitor", %"class.clang::ento::DefinedSVal", i8, i8, [6 x i8] }>
%"class.clang::ento::AnalysisManager" = type { %"class.clang::ento::BugReporterData", %"class.clang::AnalysisDeclContextManager", ptr, ptr, ptr, %"class.std::vector.1041", ptr, ptr, ptr, ptr }
%"class.clang::ento::BugReporterData" = type { ptr }
%"class.clang::AnalysisDeclContextManager" = type <{ %"class.llvm::DenseMap.1025", %"class.clang::LocationContextManager", %"class.clang::CFG::BuildOptions", %"class.std::unique_ptr.1030", %"class.clang::BodyFarm", i8, [7 x i8] }>
%"class.llvm::DenseMap.1025" = type <{ ptr, i32, i32, i32, [4 x i8] }>
%"class.clang::LocationContextManager" = type { %"class.llvm::FoldingSet.1028", i64 }
%"class.llvm::FoldingSet.1028" = type { %"class.llvm::FoldingSetImpl.1029" }
%"class.llvm::FoldingSetImpl.1029" = type { %"class.llvm::FoldingSetBase" }
%"class.clang::CFG::BuildOptions" = type { %"class.std::bitset", ptr, ptr, i8, i8, i8, i8, i8, i8, i8, i8, i8, i8, i8, i8, i8, i8, i8, i8 }
%"class.std::bitset" = type { %"struct.std::_Base_bitset" }
%"struct.std::_Base_bitset" = type { [4 x i64] }
%"class.std::unique_ptr.1030" = type { %"struct.std::__uniq_ptr_data.1031" }
%"struct.std::__uniq_ptr_data.1031" = type { %"class.std::__uniq_ptr_impl.1032" }
%"class.std::__uniq_ptr_impl.1032" = type { %"class.std::tuple.1033" }
%"class.std::tuple.1033" = type { %"struct.std::_Tuple_impl.1034" }
%"struct.std::_Tuple_impl.1034" = type { %"struct.std::_Head_base.1037" }
%"struct.std::_Head_base.1037" = type { ptr }
%"class.clang::BodyFarm" = type { ptr, %"class.llvm::DenseMap.1038", ptr }
%"class.llvm::DenseMap.1038" = type <{ ptr, i32, i32, i32, [4 x i8] }>
%"class.std::vector.1041" = type { %"struct.std::_Vector_base.1042" }
%"struct.std::_Vector_base.1042" = type { %"struct.std::_Vector_base<clang::ento::PathDiagnosticConsumer *, std::allocator<clang::ento::PathDiagnosticConsumer *>>::_Vector_impl" }
%"struct.std::_Vector_base<clang::ento::PathDiagnosticConsumer *, std::allocator<clang::ento::PathDiagnosticConsumer *>>::_Vector_impl" = type { %"struct.std::_Vector_base<clang::ento::PathDiagnosticConsumer *, std::allocator<clang::ento::PathDiagnosticConsumer *>>::_Vector_impl_data" }
%"struct.std::_Vector_base<clang::ento::PathDiagnosticConsumer *, std::allocator<clang::ento::PathDiagnosticConsumer *>>::_Vector_impl_data" = type { ptr, ptr, ptr }
%"class.clang::AnalyzerOptions" = type { %"class.llvm::RefCountedBase.1046", %"class.std::vector.1047", %"class.std::vector.722", %"class.llvm::StringMap.1052", i32, i32, i32, %"class.std::__cxx11::basic_string", %"class.std::__cxx11::basic_string", %"class.std::__cxx11::basic_string", i32, i32, i32, i32, %"class.llvm::StringRef", i8, i8, i8, i8, i8, i8, i8, i8, i8, i8, i8, i8, i8, i8, i8, i8, i8, i8, i32, i32, i32, i8, i8, i8, i8, i8, i8, i8, i8, i8, i8, i8, i8, i8, i8, i8, i8, i8, i8, i8, i8, i8, i8, i8, i8, i8, i8, i8, i32, i32, i32, i32, i32, i32, i32, i32, i32, i32, i32, i32, i32, i32, %"class.llvm::StringRef", %"class.llvm::StringRef", %"class.llvm::StringRef", %"class.llvm::StringRef", %"class.llvm::StringRef", %"class.llvm::StringRef", %"class.llvm::StringRef", %"class.llvm::StringRef", %"class.llvm::StringRef" }
%"class.llvm::RefCountedBase.1046" = type { i32 }
%"class.std::vector.1047" = type { %"struct.std::_Vector_base.1048" }
%"struct.std::_Vector_base.1048" = type { %"struct.std::_Vector_base<std::pair<std::__cxx11::basic_string<char>, bool>, std::allocator<std::pair<std::__cxx11::basic_string<char>, bool>>>::_Vector_impl" }
%"struct.std::_Vector_base<std::pair<std::__cxx11::basic_string<char>, bool>, std::allocator<std::pair<std::__cxx11::basic_string<char>, bool>>>::_Vector_impl" = type { %"struct.std::_Vector_base<std::pair<std::__cxx11::basic_string<char>, bool>, std::allocator<std::pair<std::__cxx11::basic_string<char>, bool>>>::_Vector_impl_data" }
%"struct.std::_Vector_base<std::pair<std::__cxx11::basic_string<char>, bool>, std::allocator<std::pair<std::__cxx11::basic_string<char>, bool>>>::_Vector_impl_data" = type { ptr, ptr, ptr }
%"class.std::vector.722" = type { %"struct.std::_Vector_base.723" }
%"struct.std::_Vector_base.723" = type { %"struct.std::_Vector_base<std::__cxx11::basic_string<char>, std::allocator<std::__cxx11::basic_string<char>>>::_Vector_impl" }
%"struct.std::_Vector_base<std::__cxx11::basic_string<char>, std::allocator<std::__cxx11::basic_string<char>>>::_Vector_impl" = type { %"struct.std::_Vector_base<std::__cxx11::basic_string<char>, std::allocator<std::__cxx11::basic_string<char>>>::_Vector_impl_data" }
%"struct.std::_Vector_base<std::__cxx11::basic_string<char>, std::allocator<std::__cxx11::basic_string<char>>>::_Vector_impl_data" = type { ptr, ptr, ptr }
%"class.llvm::StringMap.1052" = type { %"class.llvm::StringMapImpl" }

@_ZTVN5clang4ento18BugReporterVisitorE = external unnamed_addr constant { [8 x ptr] }, align 8

; Function Attrs: mustprogress nounwind uwtable
define linkonce_odr hidden void @_ZN4llvm14FoldingSetBase4NodeC2Ev(ptr noundef nonnull align 8 dereferenceable(8) %0) unnamed_addr #0 comdat align 2 {
  %2 = alloca ptr, align 8
  store ptr %0, ptr %2, align 8
  %3 = load ptr, ptr %2, align 8
  %4 = getelementptr inbounds nuw %"class.llvm::FoldingSetBase::Node", ptr %3, i32 0, i32 0
  store ptr null, ptr %4, align 8
  ret void
}

; Function Attrs: mustprogress nounwind uwtable
define linkonce_odr hidden noundef ptr @_ZNK4llvm18IntrusiveRefCntPtrIKN5clang4ento12ProgramStateEEptEv(ptr noundef nonnull align 8 dereferenceable(8) %0) #0 comdat align 2 {
  %2 = alloca ptr, align 8
  store ptr %0, ptr %2, align 8
  %3 = load ptr, ptr %2, align 8
  %4 = getelementptr inbounds nuw %"class.llvm::IntrusiveRefCntPtr.822", ptr %3, i32 0, i32 0
  %5 = load ptr, ptr %4, align 8
  ret ptr %5
}

; Function Attrs: mustprogress nounwind uwtable
define linkonce_odr hidden noundef nonnull align 8 dereferenceable(8) ptr @_ZNK5clang4ento12ExplodedNode8getStateEv(ptr noundef nonnull align 8 dereferenceable(88) %0) #0 comdat align 2 {
  %2 = alloca ptr, align 8
  store ptr %0, ptr %2, align 8
  %3 = load ptr, ptr %2, align 8
  %4 = getelementptr inbounds nuw %"class.clang::ento::ExplodedNode", ptr %3, i32 0, i32 2
  ret ptr %4
}

; Function Attrs: mustprogress nounwind uwtable
define linkonce_odr hidden void @_ZN5clang4ento18BugReporterVisitorC2Ev(ptr noundef nonnull align 8 dereferenceable(16) %0) unnamed_addr #0 comdat align 2 {
  %2 = alloca ptr, align 8
  store ptr %0, ptr %2, align 8
  %3 = load ptr, ptr %2, align 8
  %4 = getelementptr inbounds i8, ptr %3, i64 8
  call void @_ZN4llvm14FoldingSetBase4NodeC2Ev(ptr noundef nonnull align 8 dereferenceable(8) %4) #15
  store ptr getelementptr inbounds inrange(-16, 48) ({ [8 x ptr] }, ptr @_ZTVN5clang4ento18BugReporterVisitorE, i32 0, i32 0, i32 2), ptr %3, align 8
  ret void
}

; Function Attrs: mustprogress nounwind uwtable
define dso_local void @_ZN5clang4ento36SuppressInlineDefensiveChecksVisitorC2ENS0_11DefinedSValEPKNS0_12ExplodedNodeE(ptr noundef nonnull align 8 dereferenceable(40) %0, ptr %1, i8 %2, ptr noundef %3) unnamed_addr #0 align 2 {
  %5 = alloca %"class.clang::ento::DefinedSVal", align 8
  %6 = alloca ptr, align 8
  %7 = alloca ptr, align 8
  %8 = alloca ptr, align 8
  %9 = getelementptr inbounds nuw { ptr, i8 }, ptr %5, i32 0, i32 0
  store ptr %1, ptr %9, align 8
  %10 = getelementptr inbounds nuw { ptr, i8 }, ptr %5, i32 0, i32 1
  store i8 %2, ptr %10, align 8
  store ptr %0, ptr %6, align 8
  store ptr %3, ptr %7, align 8
  %11 = load ptr, ptr %6, align 8
  call void @_ZN5clang4ento18BugReporterVisitorC2Ev(ptr noundef nonnull align 8 dereferenceable(16) %11) #15
  store ptr getelementptr inbounds inrange(-16, 48) ({ [8 x ptr] }, ptr @_ZTVN5clang4ento36SuppressInlineDefensiveChecksVisitorE, i32 0, i32 0, i32 2), ptr %11, align 8
  %12 = getelementptr inbounds nuw %"class.clang::ento::SuppressInlineDefensiveChecksVisitor", ptr %11, i32 0, i32 1
  call void @llvm.memcpy.p0.p0.i64(ptr align 8 %12, ptr align 8 %5, i64 16, i1 false)
  %13 = getelementptr inbounds nuw %"class.clang::ento::SuppressInlineDefensiveChecksVisitor", ptr %11, i32 0, i32 2
  store i8 0, ptr %13, align 8
  %14 = getelementptr inbounds nuw %"class.clang::ento::SuppressInlineDefensiveChecksVisitor", ptr %11, i32 0, i32 3
  store i8 0, ptr %14, align 1
  %15 = load ptr, ptr %7, align 8
  %16 = call noundef nonnull align 8 dereferenceable(8) ptr @_ZNK5clang4ento12ExplodedNode8getStateEv(ptr noundef nonnull align 8 dereferenceable(88) %15)
  %17 = call noundef ptr @_ZNK4llvm18IntrusiveRefCntPtrIKN5clang4ento12ProgramStateEEptEv(ptr noundef nonnull align 8 dereferenceable(8) %16)
  %18 = call noundef nonnull align 8 dereferenceable(256) ptr @_ZNK5clang4ento12ProgramState18getAnalysisManagerEv(ptr noundef nonnull align 8 dereferenceable(48) %17)
  %19 = getelementptr inbounds nuw %"class.clang::ento::AnalysisManager", ptr %18, i32 0, i32 9
  %20 = load ptr, ptr %19, align 8
  store ptr %20, ptr %8, align 8
  %21 = load ptr, ptr %8, align 8
  %22 = getelementptr inbounds nuw %"class.clang::AnalyzerOptions", ptr %21, i32 0, i32 29
  %23 = load i8, ptr %22, align 2
  %24 = trunc i8 %23 to i1
  br i1 %24, label %27, label %25

25:                                               ; preds = %4
  %26 = getelementptr inbounds nuw %"class.clang::ento::SuppressInlineDefensiveChecksVisitor", ptr %11, i32 0, i32 2
  store i8 1, ptr %26, align 8
  br label %27

27:                                               ; preds = %25, %4
  ret void
}