; Function Attrs: mustprogress nounwind uwtable
define dso_local void @_ZN5clang4ento36SuppressInlineDefensiveChecksVisitorC2ENS0_11DefinedSValEPKNS0_12ExplodedNodeE(ptr noundef nonnull writeonly align 8 captures(none) dereferenceable(40) initializes((0, 25), (32, 34)) %0, ptr %1, i8 %2, ptr noundef readonly captures(none) %3) unnamed_addr #0 align 2 {
  %5 = getelementptr inbounds nuw i8, ptr %0, i64 8
  store ptr null, ptr %5, align 8
  store ptr getelementptr inbounds nuw inrange(-16, 48) (i8, ptr @_ZTVN5clang4ento36SuppressInlineDefensiveChecksVisitorE, i64 16), ptr %0, align 8
  %6 = getelementptr inbounds nuw i8, ptr %0, i64 16
  store ptr %1, ptr %6, align 8
  %.sroa.2.0..sroa_idx = getelementptr inbounds nuw i8, ptr %0, i64 24
  store i8 %2, ptr %.sroa.2.0..sroa_idx, align 8
  %7 = getelementptr inbounds nuw i8, ptr %0, i64 32
  store i8 0, ptr %7, align 8
  %8 = getelementptr inbounds nuw i8, ptr %0, i64 33
  store i8 0, ptr %8, align 1
  %9 = getelementptr inbounds nuw i8, ptr %3, i64 56
  %10 = load ptr, ptr %9, align 8
  %11 = tail call noundef nonnull align 8 dereferenceable(256) ptr @_ZNK5clang4ento12ProgramState18getAnalysisManagerEv(ptr noundef nonnull align 8 dereferenceable(48) %10) #22
  %12 = getelementptr inbounds nuw i8, ptr %11, i64 248
  %13 = load ptr, ptr %12, align 8
  %14 = getelementptr inbounds nuw i8, ptr %13, i64 238
  %15 = load i8, ptr %14, align 2
  %16 = trunc i8 %15 to i1
  br i1 %16, label %18, label %17

17:                                               ; preds = %4
  store i8 1, ptr %7, align 8
  br label %18

18:                                               ; preds = %17, %4
  ret void
}